Certificate:
    Data:
        Version: 3 (0x2)
        Serial Number:
            6c:e8:1b:02:e4:fa:52:c9:0f:20:61:f5:24:cf:27:40:df:72:6c:c8
        Signature Algorithm: sha256WithRSAEncryption
        Issuer: CN=dbhost.yourdomain.com
        Validity
            Not Before: May 11 12:49:05 2024 GMT
            Not After : May 11 12:49:05 2025 GMT
        Subject: CN=dbhost.yourdomain.com
        Subject Public Key Info:
            Public Key Algorithm: rsaEncryption
                Public-Key: (2048 bit)
                Modulus:
                    00:9e:7b:c2:0f:c3:4c:cb:9b:d5:90:bb:f4:59:ff:
                    a9:90:63:c4:95:8f:e7:bf:75:ae:86:f9:ca:29:85:
                    87:f7:be:d9:ca:81:bb:e0:5f:b5:4b:80:99:c4:d4:
                    b6:55:a1:77:5d:a6:d1:9a:9a:78:4e:4e:1d:b6:2f:
                    7d:be:5f:19:12:bc:4a:8d:65:cd:2b:69:66:86:d6:
                    41:3d:63:1d:98:65:42:d4:e0:d9:85:9f:b8:a3:5d:
                    5a:31:89:f7:ea:e8:c1:53:d6:56:93:06:1c:a1:85:
                    de:80:7c:4c:a4:25:e1:d0:ba:08:77:56:1c:a5:1d:
                    dc:3b:b3:b5:fe:f8:a7:c6:ae:f0:c7:f8:69:9a:91:
                    98:c8:c8:e3:11:69:0c:91:99:3b:e4:3b:63:3c:98:
                    1d:b7:62:c3:c0:57:2c:23:fd:b4:31:e6:dc:d5:ea:
                    6b:c2:0e:7a:bb:1e:33:7b:39:52:6b:e3:7f:f0:4c:
                    dc:eb:c0:d9:6c:f5:fd:e6:37:5c:a8:3e:63:15:60:
                    50:54:f8:6c:cd:59:6a:53:9e:60:db:13:a9:17:eb:
                    34:68:77:6a:89:e1:3d:8e:78:11:92:5a:9d:69:38:
                    c1:b4:e3:88:28:96:e5:d6:0d:c2:ea:dd:c2:ec:1b:
                    5f:76:de:9d:6f:0f:1d:f1:45:35:3d:1a:aa:d5:a4:
                    d9:89
                Exponent: 65537 (0x10001)
        X509v3 extensions:
            X509v3 Subject Key Identifier: 
                D9:58:C5:E2:15:E6:30:08:93:80:33:74:CE:C2:C6:EE:D6:BC:5D:31
            X509v3 Authority Key Identifier: 
                D9:58:C5:E2:15:E6:30:08:93:80:33:74:CE:C2:C6:EE:D6:BC:5D:31
            X509v3 Basic Constraints: critical
                CA:TRUE
    Signature Algorithm: sha256WithRSAEncryption
    Signature Value:
        5a:f7:4c:35:e4:c2:1e:b1:54:e6:70:4e:8e:7a:13:0d:2d:2c:
        8d:38:36:cb:6d:81:14:61:3c:a7:a5:3c:49:7d:4e:cb:1b:f3:
        43:ab:3f:f6:63:5d:14:f4:e7:21:a8:f0:6a:ee:1d:0c:7a:0b:
        a1:19:d0:e7:ce:dc:be:f6:bc:c9:45:cb:90:de:9b:77:cd:a3:
        ad:12:2f:c2:09:5b:40:aa:45:91:dc:b4:f5:d5:71:9f:35:4b:
        8a:a3:df:9c:01:50:04:9c:e7:cc:92:9f:49:dc:12:99:fc:87:
        ae:3b:e8:e9:79:a6:93:c1:4d:19:66:62:6e:d7:52:16:94:a0:
        7a:e0:70:70:34:9c:23:ee:52:45:fd:d1:93:b5:01:c1:a4:e2:
        19:fc:f5:fd:27:ca:75:ba:ed:bb:b2:fd:0b:3c:29:ac:89:cd:
        35:7f:ab:22:5d:fc:f9:26:a1:25:a2:c7:27:e6:d0:b5:ff:4b:
        7c:d0:53:ad:32:28:d8:a9:84:69:d3:57:42:dc:ff:1f:93:85:
        26:d4:2b:76:56:6e:3a:77:49:d2:9e:aa:3b:35:99:d9:d8:8b:
        e3:fa:5d:ec:a2:31:ae:f6:b6:fe:1a:38:f8:fb:d5:4f:5b:57:
        59:20:ca:41:a3:cb:78:fb:45:77:f8:59:c6:98:ff:74:b6:90:
        ee:20:9e:10
-----BEGIN CERTIFICATE-----
MIIDITCCAgmgAwIBAgIUbOgbAuT6UskPIGH1JM8nQN9ybMgwDQYJKoZIhvcNAQEL
BQAwIDEeMBwGA1UEAwwVZGJob3N0LnlvdXJkb21haW4uY29tMB4XDTI0MDUxMTEy
NDkwNVoXDTI1MDUxMTEyNDkwNVowIDEeMBwGA1UEAwwVZGJob3N0LnlvdXJkb21h
aW4uY29tMIIBIjANBgkqhkiG9w0BAQEFAAOCAQ8AMIIBCgKCAQEAnnvCD8NMy5vV
kLv0Wf+pkGPElY/nv3WuhvnKKYWH977ZyoG74F+1S4CZxNS2VaF3XabRmpp4Tk4d
ti99vl8ZErxKjWXNK2lmhtZBPWMdmGVC1ODZhZ+4o11aMYn36ujBU9ZWkwYcoYXe
gHxMpCXh0LoId1YcpR3cO7O1/vinxq7wx/hpmpGYyMjjEWkMkZk75DtjPJgdt2LD
wFcsI/20Mebc1eprwg56ux4zezlSa+N/8Ezc68DZbPX95jdcqD5jFWBQVPhszVlq
U55g2xOpF+s0aHdqieE9jngRklqdaTjBtOOIKJbl1g3C6t3C7Btfdt6dbw8d8UU1
PRqq1aTZiQIDAQABo1MwUTAdBgNVHQ4EFgQU2VjF4hXmMAiTgDN0zsLG7ta8XTEw
HwYDVR0jBBgwFoAU2VjF4hXmMAiTgDN0zsLG7ta8XTEwDwYDVR0TAQH/BAUwAwEB
/zANBgkqhkiG9w0BAQsFAAOCAQEAWvdMNeTCHrFU5nBOjnoTDS0sjTg2y22BFGE8
p6U8SX1OyxvzQ6s/9mNdFPTnIajwau4dDHoLoRnQ587cvva8yUXLkN6bd82jrRIv
wglbQKpFkdy09dVxnzVLiqPfnAFQBJznzJKfSdwSmfyHrjvo6Xmmk8FNGWZibtdS
FpSgeuBwcDScI+5SRf3Rk7UBwaTiGfz1/SfKdbrtu7L9CzwprInNNX+rIl38+Sah
JaLHJ+bQtf9LfNBTrTIo2KmEadNXQtz/H5OFJtQrdlZuOndJ0p6qOzWZ2diL4/pd
7KIxrva2/ho4+PvVT1tXWSDKQaPLePtFd/hZxpj/dLaQ7iCeEA==
-----END CERTIFICATE-----
