Certificate Request:
    Data:
        Version: 1 (0x0)
        Subject: CN=root.yourdomain.com
        Subject Public Key Info:
            Public Key Algorithm: rsaEncryption
                Public-Key: (2048 bit)
                Modulus:
                    00:d7:60:bc:b2:1f:80:51:7d:58:09:62:10:1e:d2:
                    7c:c9:7b:c4:6d:b1:db:46:33:20:bc:5d:a0:6a:61:
                    87:cd:7a:07:b3:ac:11:c6:32:0f:c7:85:83:95:c9:
                    47:7f:46:bf:17:b8:85:5f:8b:97:04:ce:d2:6e:3d:
                    a1:df:49:e9:f0:64:95:c2:81:04:4e:ea:4e:94:5d:
                    38:63:ad:fb:ea:41:cc:de:c8:fa:17:4d:29:66:1e:
                    00:e8:f1:ec:fc:a3:e2:77:49:02:3d:63:7d:29:8a:
                    53:e1:92:b1:45:ae:24:59:8d:d7:1e:60:75:cd:5d:
                    ca:31:42:7e:0e:e2:32:15:f5:36:f1:50:40:38:0f:
                    74:f0:d6:f6:d9:9d:4b:41:b4:c9:e8:5a:f5:f3:d4:
                    77:29:3d:38:a3:f0:b1:1b:93:56:b8:f6:89:57:30:
                    97:d0:4e:e9:c1:fd:e5:2f:a7:43:53:6f:ec:88:98:
                    94:fd:54:b8:c1:4e:b7:0a:3a:e2:77:88:06:42:7e:
                    24:4f:2b:84:26:46:b0:f2:57:9f:f3:9c:af:e6:1b:
                    4d:1f:7a:c0:ce:ea:56:d2:06:80:40:c3:d2:38:29:
                    c8:2d:92:37:6b:8e:41:b4:11:91:b8:2e:0a:98:ca:
                    a9:8f:d9:90:7b:2c:1f:00:0e:26:0c:8d:36:75:ac:
                    da:2d
                Exponent: 65537 (0x10001)
        Attributes:
            (none)
            Requested Extensions:
    Signature Algorithm: sha256WithRSAEncryption
    Signature Value:
        34:ca:ba:bb:5a:4a:69:d9:80:9a:a4:af:93:aa:3f:b9:c3:61:
        28:93:fb:62:23:7d:bb:f6:40:83:85:b8:ee:0c:35:8b:4f:c6:
        42:bd:c6:6c:6a:a2:26:4f:d9:8d:e6:d9:08:9c:59:0a:80:6d:
        68:95:25:ca:b4:bc:ee:5f:83:f1:52:ce:4e:e0:d2:e9:66:d0:
        0f:58:46:f8:97:ab:52:5a:f0:78:34:6e:91:ba:6f:17:5d:31:
        64:35:01:45:f8:60:4d:56:a9:8a:69:6f:da:f3:bb:a5:6d:b4:
        04:b5:21:d9:6e:b3:48:63:e5:92:49:98:dc:fd:84:c0:75:37:
        b0:d0:f7:a9:f3:d6:26:aa:e7:14:14:7e:a6:3a:7f:f7:e9:78:
        e8:bb:e9:d9:94:20:dd:63:36:2b:03:cc:b1:9e:1c:97:57:14:
        09:6a:01:7c:1e:6b:24:5c:7c:a1:31:2a:11:44:bf:4a:6a:e4:
        ae:fa:f2:1b:3e:8f:3c:b5:64:1f:2f:4c:10:76:16:85:09:98:
        bb:c4:d7:15:20:6d:90:f0:6b:84:b8:d9:be:86:17:d3:e5:c3:
        7a:ee:07:9a:49:46:c5:2b:eb:d6:a0:8e:bf:c3:29:60:86:8c:
        fe:cc:63:a7:d7:cf:8f:37:94:a7:95:e5:2a:37:8f:1f:d2:f1:
        c8:e1:1e:65
-----BEGIN CERTIFICATE REQUEST-----
MIICYzCCAUsCAQAwHjEcMBoGA1UEAwwTcm9vdC55b3VyZG9tYWluLmNvbTCCASIw
DQYJKoZIhvcNAQEBBQADggEPADCCAQoCggEBANdgvLIfgFF9WAliEB7SfMl7xG2x
20YzILxdoGphh816B7OsEcYyD8eFg5XJR39Gvxe4hV+LlwTO0m49od9J6fBklcKB
BE7qTpRdOGOt++pBzN7I+hdNKWYeAOjx7Pyj4ndJAj1jfSmKU+GSsUWuJFmN1x5g
dc1dyjFCfg7iMhX1NvFQQDgPdPDW9tmdS0G0yeha9fPUdyk9OKPwsRuTVrj2iVcw
l9BO6cH95S+nQ1Nv7IiYlP1UuMFOtwo64neIBkJ+JE8rhCZGsPJXn/Ocr+YbTR96
wM7qVtIGgEDD0jgpyC2SN2uOQbQRkbguCpjKqY/ZkHssHwAOJgyNNnWs2i0CAwEA
AaAAMA0GCSqGSIb3DQEBCwUAA4IBAQA0yrq7Wkpp2YCapK+Tqj+5w2Eok/tiI327
9kCDhbjuDDWLT8ZCvcZsaqImT9mN5tkInFkKgG1olSXKtLzuX4PxUs5O4NLpZtAP
WEb4l6tSWvB4NG6Rum8XXTFkNQFF+GBNVqmKaW/a87ulbbQEtSHZbrNIY+WSSZjc
/YTAdTew0Pep89YmqucUFH6mOn/36Xjou+nZlCDdYzYrA8yxnhyXVxQJagF8Hmsk
XHyhMSoRRL9KauSu+vIbPo88tWQfL0wQdhaFCZi7xNcVIG2Q8GuEuNm+hhfT5cN6
7geaSUbFK+vWoI6/wylghoz+zGOn18+PN5SnleUqN48f0vHI4R5l
-----END CERTIFICATE REQUEST-----
